; Function Attrs: nounwind uwtable
define i32 @LookInStream_Read(ptr noundef %0, ptr noundef %1, i64 noundef %2) local_unnamed_addr #0 {
  %4 = alloca i64, align 8
  %.not26.i = icmp eq i64 %2, 0
  br i1 %.not26.i, label %LookInStream_Read2.exit, label %.lr.ph.i

.lr.ph.i:                                         ; preds = %3
  %5 = getelementptr inbounds nuw i8, ptr %0, i64 16
  br label %6

6:                                                ; preds = %12, %.lr.ph.i
  %.01428.i = phi ptr [ %1, %.lr.ph.i ], [ %13, %12 ]
  %.01627.i = phi i64 [ %2, %.lr.ph.i ], [ %14, %12 ]
  call void @llvm.lifetime.start.p0(i64 8, ptr nonnull %4) #7
  store i64 %.01627.i, ptr %4, align 8, !tbaa !3
  %7 = load ptr, ptr %5, align 8, !tbaa !17
  %8 = call i32 %7(ptr noundef %0, ptr noundef %.01428.i, ptr noundef nonnull %4) #7
  %.not20.i = icmp eq i32 %8, 0
  br i1 %.not20.i, label %9, label %.thread.i

9:                                                ; preds = %6
  %10 = load i64, ptr %4, align 8, !tbaa !3
  %11 = icmp eq i64 %10, 0
  br i1 %11, label %.thread.i, label %12

.thread.i:                                        ; preds = %9, %6
  %.2.ph.i = phi i32 [ 6, %9 ], [ %8, %6 ]
  call void @llvm.lifetime.end.p0(i64 8, ptr nonnull %4) #7
  br label %LookInStream_Read2.exit

12:                                               ; preds = %9
  %13 = getelementptr inbounds nuw i8, ptr %.01428.i, i64 %10
  %14 = sub i64 %.01627.i, %10
  call void @llvm.lifetime.end.p0(i64 8, ptr nonnull %4) #7
  %.not.i = icmp eq i64 %14, 0
  br i1 %.not.i, label %LookInStream_Read2.exit, label %6

LookInStream_Read2.exit:                          ; preds = %12, %3, %.thread.i
  %.3.i = phi i32 [ %.2.ph.i, %.thread.i ], [ 0, %3 ], [ 0, %12 ]
  ret i32 %.3.i
}